target datalayout = "e-m:e-p270:32:32-p271:32:32-p272:64:64-i64:64-i128:128-f80:128-n8:16:32:64-S128"
target triple = "x86_64-pc-linux-gnu"

@hf_aim_fnac_subtype_ssi_buddyname_len = internal global i32 0, align 4
@hf_aim_fnac_subtype_ssi_buddyname = internal global i32 0, align 4
@hf_aim_fnac_subtype_ssi_gid = internal global i32 0, align 4
@hf_aim_fnac_subtype_ssi_bid = internal global i32 0, align 4
@hf_aim_fnac_subtype_ssi_type = internal global i32 0, align 4
@hf_aim_fnac_subtype_ssi_tlvlen = internal global i32 0, align 4

; Function Attrs: null_pointer_is_valid sspstrong uwtable
define internal i32 @dissect_ssi_item(ptr noundef %0, ptr noundef %1, i32 noundef %2, ptr noundef %3) #0 {
  %5 = alloca ptr, align 8
  %6 = alloca ptr, align 8
  %7 = alloca i32, align 4
  %8 = alloca ptr, align 8
  %9 = alloca i16, align 2
  %10 = alloca i32, align 4
  %11 = alloca i16, align 2
  store ptr %0, ptr %5, align 8
  store ptr %1, ptr %6, align 8
  store i32 %2, ptr %7, align 4
  store ptr %3, ptr %8, align 8
  call void @llvm.lifetime.start.p0(i64 2, ptr %9) #13
  store i16 0, ptr %9, align 2
  call void @llvm.lifetime.start.p0(i64 4, ptr %10) #13
  call void @llvm.lifetime.start.p0(i64 2, ptr %11) #13
  store i16 0, ptr %11, align 2
  %12 = load ptr, ptr %5, align 8
  %13 = load i32, ptr %7, align 4
  %14 = call zeroext i16 @tvb_get_ntohs(ptr noundef %12, i32 noundef %13)
  store i16 %14, ptr %9, align 2
  %15 = load ptr, ptr %8, align 8
  %16 = load i32, ptr @hf_aim_fnac_subtype_ssi_buddyname_len, align 4
  %17 = load ptr, ptr %5, align 8
  %18 = load i32, ptr %7, align 4
  %19 = call ptr @proto_tree_add_item(ptr noundef %15, i32 noundef %16, ptr noundef %17, i32 noundef %18, i32 noundef 2, i32 noundef 0)
  %20 = load i32, ptr %7, align 4
  %21 = add i32 %20, 2
  store i32 %21, ptr %7, align 4
  %22 = load i16, ptr %9, align 2
  %23 = zext i16 %22 to i32
  %24 = icmp sgt i32 %23, 0
  br i1 %24, label %25, label %37

25:                                               ; preds = %4
  %26 = load ptr, ptr %8, align 8
  %27 = load i32, ptr @hf_aim_fnac_subtype_ssi_buddyname, align 4
  %28 = load ptr, ptr %5, align 8
  %29 = load i32, ptr %7, align 4
  %30 = load i16, ptr %9, align 2
  %31 = zext i16 %30 to i32
  %32 = call ptr @proto_tree_add_item(ptr noundef %26, i32 noundef %27, ptr noundef %28, i32 noundef %29, i32 noundef %31, i32 noundef 2)
  %33 = load i16, ptr %9, align 2
  %34 = zext i16 %33 to i32
  %35 = load i32, ptr %7, align 4
  %36 = add i32 %35, %34
  store i32 %36, ptr %7, align 4
  br label %37

37:                                               ; preds = %25, %4
  %38 = load ptr, ptr %8, align 8
  %39 = load i32, ptr @hf_aim_fnac_subtype_ssi_gid, align 4
  %40 = load ptr, ptr %5, align 8
  %41 = load i32, ptr %7, align 4
  %42 = call ptr @proto_tree_add_item(ptr noundef %38, i32 noundef %39, ptr noundef %40, i32 noundef %41, i32 noundef 2, i32 noundef 0)
  %43 = load i32, ptr %7, align 4
  %44 = add i32 %43, 2
  store i32 %44, ptr %7, align 4
  %45 = load ptr, ptr %8, align 8
  %46 = load i32, ptr @hf_aim_fnac_subtype_ssi_bid, align 4
  %47 = load ptr, ptr %5, align 8
  %48 = load i32, ptr %7, align 4
  %49 = call ptr @proto_tree_add_item(ptr noundef %45, i32 noundef %46, ptr noundef %47, i32 noundef %48, i32 noundef 2, i32 noundef 0)
  %50 = load i32, ptr %7, align 4
  %51 = add i32 %50, 2
  store i32 %51, ptr %7, align 4
  %52 = load ptr, ptr %8, align 8
  %53 = load i32, ptr @hf_aim_fnac_subtype_ssi_type, align 4
  %54 = load ptr, ptr %5, align 8
  %55 = load i32, ptr %7, align 4
  %56 = call ptr @proto_tree_add_item(ptr noundef %52, i32 noundef %53, ptr noundef %54, i32 noundef %55, i32 noundef 2, i32 noundef 0)
  %57 = load i32, ptr %7, align 4
  %58 = add i32 %57, 2
  store i32 %58, ptr %7, align 4
  %59 = load ptr, ptr %5, align 8
  %60 = load i32, ptr %7, align 4
  %61 = call zeroext i16 @tvb_get_ntohs(ptr noundef %59, i32 noundef %60)
  store i16 %61, ptr %11, align 2
  %62 = load ptr, ptr %8, align 8
  %63 = load i32, ptr @hf_aim_fnac_subtype_ssi_tlvlen, align 4
  %64 = load ptr, ptr %5, align 8
  %65 = load i32, ptr %7, align 4
  %66 = call ptr @proto_tree_add_item(ptr noundef %62, i32 noundef %63, ptr noundef %64, i32 noundef %65, i32 noundef 2, i32 noundef 0)
  %67 = load i32, ptr %7, align 4
  %68 = add i32 %67, 2
  store i32 %68, ptr %7, align 4
  %69 = load i32, ptr %7, align 4
  store i32 %69, ptr %10, align 4
  br label %70

70:                                               ; preds = %77, %37
  %71 = load i32, ptr %10, align 4
  %72 = load i32, ptr %7, align 4
  %73 = load i16, ptr %11, align 2
  %74 = zext i16 %73 to i32
  %75 = add i32 %72, %74
  %76 = icmp slt i32 %71, %75
  br i1 %76, label %77, label %83

77:                                               ; preds = %70
  %78 = load ptr, ptr %5, align 8
  %79 = load ptr, ptr %6, align 8
  %80 = load i32, ptr %10, align 4
  %81 = load ptr, ptr %8, align 8
  %82 = call i32 @dissect_aim_tlv(ptr noundef %78, ptr noundef %79, i32 noundef %80, ptr noundef %81, ptr noundef @aim_client_tlvs)
  store i32 %82, ptr %10, align 4
  br label %70, !llvm.loop !45

83:                                               ; preds = %70
  %84 = load i32, ptr %10, align 4
  call void @llvm.lifetime.end.p0(i64 2, ptr %11) #13
  call void @llvm.lifetime.end.p0(i64 4, ptr %10) #13
  call void @llvm.lifetime.end.p0(i64 2, ptr %9) #13
  ret i32 %84
}