; Function Attrs: null_pointer_is_valid sspstrong uwtable
define internal fastcc i32 @dissect_ssi_item(ptr noundef %0, ptr noundef %1, i32 noundef %2, ptr noundef %3) unnamed_addr #0 {
  %5 = tail call zeroext i16 @tvb_get_ntohs(ptr noundef %0, i32 noundef %2)
  %6 = load i32, ptr @hf_aim_fnac_subtype_ssi_buddyname_len, align 4
  %7 = tail call ptr @proto_tree_add_item(ptr noundef %3, i32 noundef %6, ptr noundef %0, i32 noundef %2, i32 noundef 2, i32 noundef 0)
  %8 = add i32 %2, 2
  %.not = icmp eq i16 %5, 0
  br i1 %.not, label %14, label %9

9:                                                ; preds = %4
  %10 = zext i16 %5 to i32
  %11 = load i32, ptr @hf_aim_fnac_subtype_ssi_buddyname, align 4
  %12 = tail call ptr @proto_tree_add_item(ptr noundef %3, i32 noundef %11, ptr noundef %0, i32 noundef %8, i32 noundef %10, i32 noundef 2)
  %13 = add i32 %8, %10
  br label %14

14:                                               ; preds = %9, %4
  %.039 = phi i32 [ %13, %9 ], [ %8, %4 ]
  %15 = load i32, ptr @hf_aim_fnac_subtype_ssi_gid, align 4
  %16 = tail call ptr @proto_tree_add_item(ptr noundef %3, i32 noundef %15, ptr noundef %0, i32 noundef %.039, i32 noundef 2, i32 noundef 0)
  %17 = add i32 %.039, 2
  %18 = load i32, ptr @hf_aim_fnac_subtype_ssi_bid, align 4
  %19 = tail call ptr @proto_tree_add_item(ptr noundef %3, i32 noundef %18, ptr noundef %0, i32 noundef %17, i32 noundef 2, i32 noundef 0)
  %20 = add i32 %.039, 4
  %21 = load i32, ptr @hf_aim_fnac_subtype_ssi_type, align 4
  %22 = tail call ptr @proto_tree_add_item(ptr noundef %3, i32 noundef %21, ptr noundef %0, i32 noundef %20, i32 noundef 2, i32 noundef 0)
  %23 = add i32 %.039, 6
  %24 = tail call zeroext i16 @tvb_get_ntohs(ptr noundef %0, i32 noundef %23)
  %25 = load i32, ptr @hf_aim_fnac_subtype_ssi_tlvlen, align 4
  %26 = tail call ptr @proto_tree_add_item(ptr noundef %3, i32 noundef %25, ptr noundef %0, i32 noundef %23, i32 noundef 2, i32 noundef 0)
  %27 = add i32 %.039, 8
  %28 = zext i16 %24 to i32
  %29 = add i32 %27, %28
  %30 = icmp slt i32 %27, %29
  br i1 %30, label %.lr.ph, label %._crit_edge

.lr.ph:                                           ; preds = %14, %.lr.ph
  %.041 = phi i32 [ %31, %.lr.ph ], [ %27, %14 ]
  %31 = tail call fastcc i32 @dissect_aim_tlv(ptr noundef %0, ptr noundef %1, i32 noundef %.041, ptr noundef %3, ptr noundef nonnull @aim_client_tlvs)
  %32 = icmp slt i32 %31, %29
  br i1 %32, label %.lr.ph, label %._crit_edge, !llvm.loop !44

._crit_edge:                                      ; preds = %.lr.ph, %14
  %.0.lcssa = phi i32 [ %27, %14 ], [ %31, %.lr.ph ]
  ret i32 %.0.lcssa
}